; Function Attrs: mustprogress uwtable
define void @_ZNK6casadi22GetNonzerosParamVector10ad_forwardERKSt6vectorIS1_INS_2MXESaIS2_EESaIS4_EERS6_(ptr nocapture noundef nonnull readonly align 8 dereferenceable(64) %0, ptr nocapture noundef nonnull readonly align 8 dereferenceable(24) %1, ptr nocapture noundef nonnull readonly align 8 dereferenceable(24) %2) unnamed_addr #3 align 2 personality ptr @__gxx_personality_v0 {
  %4 = alloca %"class.casadi::MX", align 8
  %5 = alloca %"class.casadi::MX", align 8
  %6 = getelementptr inbounds i8, ptr %0, i64 32
  %7 = getelementptr inbounds i8, ptr %0, i64 40
  %8 = load ptr, ptr %7, align 8
  %9 = load ptr, ptr %6, align 8
  %10 = ptrtoint ptr %8 to i64
  %11 = ptrtoint ptr %9 to i64
  %12 = sub i64 %10, %11
  %13 = ashr exact i64 %12, 3
  %.not.i.i.i = icmp ugt i64 %13, 1
  br i1 %.not.i.i.i, label %_ZNK6casadi6MXNode3depEx.exit, label %14

14:                                               ; preds = %3
  tail call void (ptr, ...) @_ZSt24__throw_out_of_range_fmtPKcz(ptr noundef nonnull @.str.65, i64 noundef 1, i64 noundef %13) #20
  unreachable

_ZNK6casadi6MXNode3depEx.exit:                    ; preds = %3
  %15 = getelementptr inbounds i8, ptr %9, i64 8
  %16 = getelementptr inbounds i8, ptr %2, i64 8
  %17 = load ptr, ptr %16, align 8
  %18 = load ptr, ptr %2, align 8
  %.not = icmp eq ptr %17, %18
  br i1 %.not, label %._crit_edge, label %.lr.ph

.lr.ph:                                           ; preds = %_ZNK6casadi6MXNode3depEx.exit, %_ZN6casadi2MXaSERKS0_.exit
  %.01115 = phi i64 [ %36, %_ZN6casadi2MXaSERKS0_.exit ], [ 0, %_ZNK6casadi6MXNode3depEx.exit ]
  %19 = load ptr, ptr %7, align 8
  %20 = load ptr, ptr %6, align 8
  %.not.i.i.i13.not = icmp eq ptr %19, %20
  br i1 %.not.i.i.i13.not, label %21, label %_ZNK6casadi6MXNode3depEx.exit14

21:                                               ; preds = %.lr.ph
  call void (ptr, ...) @_ZSt24__throw_out_of_range_fmtPKcz(ptr noundef nonnull @.str.65, i64 noundef 0, i64 noundef 0) #20
  unreachable

_ZNK6casadi6MXNode3depEx.exit14:                  ; preds = %.lr.ph
  %22 = load ptr, ptr %1, align 8
  %23 = getelementptr inbounds %"class.std::vector", ptr %22, i64 %.01115
  %24 = load ptr, ptr %23, align 8
  %25 = call noundef nonnull align 8 dereferenceable(8) ptr @_ZNK6casadi2MX8sparsityEv(ptr noundef nonnull align 8 dereferenceable(8) %20)
  call void @_ZN6casadi2MX7projectERKS0_RKNS_8SparsityEb(ptr dead_on_unwind nonnull writable sret(%"class.casadi::MX") align 8 %4, ptr noundef nonnull align 8 dereferenceable(8) %24, ptr noundef nonnull align 8 dereferenceable(8) %25, i1 noundef zeroext false)
  %26 = invoke noundef ptr @_ZN6casadi2MXptEv(ptr noundef nonnull align 8 dereferenceable(8) %4)
          to label %27 unwind label %44

27:                                               ; preds = %_ZNK6casadi6MXNode3depEx.exit14
  %28 = load ptr, ptr %26, align 8
  %29 = getelementptr inbounds i8, ptr %28, i64 624
  %30 = load ptr, ptr %29, align 8
  invoke void %30(ptr dead_on_unwind nonnull writable sret(%"class.casadi::MX") align 8 %5, ptr noundef nonnull align 8 dereferenceable(64) %26, ptr noundef nonnull align 8 dereferenceable(8) %15)
          to label %31 unwind label %44

31:                                               ; preds = %27
  %32 = load ptr, ptr %2, align 8
  %33 = getelementptr inbounds %"class.std::vector", ptr %32, i64 %.01115
  %34 = load ptr, ptr %33, align 8
  %35 = invoke noundef nonnull align 8 dereferenceable(8) ptr @_ZN6casadi12SharedObjectaSERKS0_(ptr noundef nonnull align 8 dereferenceable(8) %34, ptr noundef nonnull align 8 dereferenceable(8) %5)
          to label %_ZN6casadi2MXaSERKS0_.exit unwind label %46

_ZN6casadi2MXaSERKS0_.exit:                       ; preds = %31
  call void @_ZN6casadi2MXD1Ev(ptr noundef nonnull align 8 dereferenceable(8) %5) #18
  call void @_ZN6casadi2MXD1Ev(ptr noundef nonnull align 8 dereferenceable(8) %4) #18
  %36 = add nuw nsw i64 %.01115, 1
  %37 = load ptr, ptr %16, align 8
  %38 = load ptr, ptr %2, align 8
  %39 = ptrtoint ptr %37 to i64
  %40 = ptrtoint ptr %38 to i64
  %41 = sub i64 %39, %40
  %42 = sdiv exact i64 %41, 24
  %43 = icmp ult i64 %36, %42
  br i1 %43, label %.lr.ph, label %._crit_edge, !llvm.loop !30

44:                                               ; preds = %27, %_ZNK6casadi6MXNode3depEx.exit14
  %45 = landingpad { ptr, i32 }
          cleanup
  br label %48

46:                                               ; preds = %31
  %47 = landingpad { ptr, i32 }
          cleanup
  call void @_ZN6casadi2MXD1Ev(ptr noundef nonnull align 8 dereferenceable(8) %5) #18
  br label %48

48:                                               ; preds = %46, %44
  %.pn = phi { ptr, i32 } [ %47, %46 ], [ %45, %44 ]
  call void @_ZN6casadi2MXD1Ev(ptr noundef nonnull align 8 dereferenceable(8) %4) #18
  resume { ptr, i32 } %.pn

._crit_edge:                                      ; preds = %_ZN6casadi2MXaSERKS0_.exit, %_ZNK6casadi6MXNode3depEx.exit
  ret void
}